target datalayout = "e-m:e-p270:32:32-p271:32:32-p272:64:64-i64:64-i128:128-f80:128-n8:16:32:64-S128"
target triple = "x86_64-pc-linux-gnu"

%class.MemRegion = type { ptr, i64 }
%class.ParallelCompactData = type { ptr, ptr, i64, ptr, i64 }
%"class.ParallelCompactData::RegionData" = type <{ ptr, i64, ptr, i32, i32, i32, [4 x i8] }>
%class.MutableSpace = type { ptr, %class.MemRegion, i64, ptr, ptr, ptr }

; Function Attrs: mustprogress nounwind uwtable
define linkonce_odr hidden noundef i64 @_Z13pointer_deltaPVKvS0_m(ptr noundef %0, ptr noundef %1, i64 noundef %2) #1 comdat {
  %4 = alloca ptr, align 8
  %5 = alloca ptr, align 8
  %6 = alloca i64, align 8
  store ptr %0, ptr %4, align 8
  store ptr %1, ptr %5, align 8
  store i64 %2, ptr %6, align 8
  %7 = load ptr, ptr %4, align 8
  %8 = ptrtoint ptr %7 to i64
  %9 = load ptr, ptr %5, align 8
  %10 = ptrtoint ptr %9 to i64
  %11 = sub i64 %8, %10
  %12 = load i64, ptr %6, align 8
  %13 = udiv i64 %11, %12
  ret i64 %13
}

; Function Attrs: mustprogress nounwind uwtable
define linkonce_odr hidden noundef i64 @_ZNK19ParallelCompactData10RegionData13live_obj_sizeEv(ptr noundef nonnull align 8 dereferenceable(36) %0) #1 comdat align 2 {
  %2 = alloca ptr, align 8
  store ptr %0, ptr %2, align 8
  %3 = load ptr, ptr %2, align 8
  %4 = getelementptr inbounds %"class.ParallelCompactData::RegionData", ptr %3, i32 0, i32 4
  %5 = load volatile i32, ptr %4, align 4
  %6 = and i32 %5, 134217727
  %7 = zext i32 %6 to i64
  ret i64 %7
}

; Function Attrs: mustprogress nounwind uwtable
define linkonce_odr hidden noundef i64 @_ZNK19ParallelCompactData10RegionData16partial_obj_sizeEv(ptr noundef nonnull align 8 dereferenceable(36) %0) #1 comdat align 2 {
  %2 = alloca ptr, align 8
  store ptr %0, ptr %2, align 8
  %3 = load ptr, ptr %2, align 8
  %4 = getelementptr inbounds %"class.ParallelCompactData::RegionData", ptr %3, i32 0, i32 3
  %5 = load i32, ptr %4, align 8
  %6 = zext i32 %5 to i64
  ret i64 %6
}

; Function Attrs: mustprogress nounwind uwtable
define linkonce_odr hidden noundef ptr @_ZNK19ParallelCompactData17region_align_downEPP12HeapWordImpl(ptr noundef nonnull align 8 dereferenceable(40) %0, ptr noundef %1) #1 comdat align 2 {
  %3 = alloca ptr, align 8
  %4 = alloca ptr, align 8
  store ptr %0, ptr %3, align 8
  store ptr %1, ptr %4, align 8
  %5 = load ptr, ptr %4, align 8
  %6 = ptrtoint ptr %5 to i64
  %7 = and i64 %6, -524288
  %8 = inttoptr i64 %7 to ptr
  ret ptr %8
}

; Function Attrs: mustprogress nounwind uwtable
define linkonce_odr hidden noundef i64 @_Z13pointer_deltaPKP12HeapWordImplS2_(ptr noundef %0, ptr noundef %1) #1 comdat {
  %3 = alloca ptr, align 8
  %4 = alloca ptr, align 8
  store ptr %0, ptr %3, align 8
  store ptr %1, ptr %4, align 8
  %5 = load ptr, ptr %3, align 8
  %6 = load ptr, ptr %4, align 8
  %7 = call noundef i64 @_Z13pointer_deltaPVKvS0_m(ptr noundef %5, ptr noundef %6, i64 noundef 8)
  ret i64 %7
}

; Function Attrs: mustprogress nounwind uwtable
define linkonce_odr hidden noundef ptr @_ZNK19ParallelCompactData14region_to_addrEm(ptr noundef nonnull align 8 dereferenceable(40) %0, i64 noundef %1) #1 comdat align 2 {
  %3 = alloca ptr, align 8
  %4 = alloca i64, align 8
  store ptr %0, ptr %3, align 8
  store i64 %1, ptr %4, align 8
  %5 = load ptr, ptr %3, align 8
  %6 = getelementptr inbounds %class.ParallelCompactData, ptr %5, i32 0, i32 0
  %7 = load ptr, ptr %6, align 8
  %8 = load i64, ptr %4, align 8
  %9 = shl i64 %8, 16
  %10 = getelementptr inbounds ptr, ptr %7, i64 %9
  ret ptr %10
}

; Function Attrs: mustprogress nounwind uwtable
define linkonce_odr hidden noundef i64 @_ZNK19ParallelCompactData10RegionData9data_sizeEv(ptr noundef nonnull align 8 dereferenceable(36) %0) #1 comdat align 2 {
  %2 = alloca ptr, align 8
  store ptr %0, ptr %2, align 8
  %3 = load ptr, ptr %2, align 8
  %4 = call noundef i64 @_ZNK19ParallelCompactData10RegionData16partial_obj_sizeEv(ptr noundef nonnull align 8 dereferenceable(36) %3)
  %5 = call noundef i64 @_ZNK19ParallelCompactData10RegionData13live_obj_sizeEv(ptr noundef nonnull align 8 dereferenceable(36) %3)
  %6 = add i64 %4, %5
  ret i64 %6
}

; Function Attrs: mustprogress nounwind uwtable
define linkonce_odr hidden noundef ptr @_ZNK19ParallelCompactData15region_align_upEPP12HeapWordImpl(ptr noundef nonnull align 8 dereferenceable(40) %0, ptr noundef %1) #1 comdat align 2 {
  %3 = alloca ptr, align 8
  %4 = alloca ptr, align 8
  store ptr %0, ptr %3, align 8
  store ptr %1, ptr %4, align 8
  %5 = load ptr, ptr %3, align 8
  %6 = load ptr, ptr %4, align 8
  %7 = getelementptr inbounds ptr, ptr %6, i64 65535
  %8 = call noundef ptr @_ZNK19ParallelCompactData17region_align_downEPP12HeapWordImpl(ptr noundef nonnull align 8 dereferenceable(40) %5, ptr noundef %7)
  ret ptr %8
}

; Function Attrs: mustprogress nounwind uwtable
define linkonce_odr hidden noundef ptr @_ZNK12MutableSpace3topEv(ptr noundef nonnull align 8 dereferenceable(56) %0) #1 comdat align 2 {
  %2 = alloca ptr, align 8
  store ptr %0, ptr %2, align 8
  %3 = load ptr, ptr %2, align 8
  %4 = getelementptr inbounds %class.MutableSpace, ptr %3, i32 0, i32 4
  %5 = load volatile ptr, ptr %4, align 8
  ret ptr %5
}

; Function Attrs: mustprogress nounwind uwtable
define linkonce_odr hidden noundef i64 @_ZNK19ParallelCompactData18addr_to_region_idxEPKP12HeapWordImpl(ptr noundef nonnull align 8 dereferenceable(40) %0, ptr noundef %1) #1 comdat align 2 {
  %3 = alloca ptr, align 8
  %4 = alloca ptr, align 8
  store ptr %0, ptr %3, align 8
  store ptr %1, ptr %4, align 8
  %5 = load ptr, ptr %3, align 8
  %6 = load ptr, ptr %4, align 8
  %7 = getelementptr inbounds %class.ParallelCompactData, ptr %5, i32 0, i32 0
  %8 = load ptr, ptr %7, align 8
  %9 = call noundef i64 @_Z13pointer_deltaPKP12HeapWordImplS2_(ptr noundef %6, ptr noundef %8)
  %10 = lshr i64 %9, 16
  ret i64 %10
}

; Function Attrs: mustprogress nounwind uwtable
define linkonce_odr hidden noundef ptr @_ZNK12MutableSpace6bottomEv(ptr noundef nonnull align 8 dereferenceable(56) %0) #1 comdat align 2 {
  %2 = alloca ptr, align 8
  store ptr %0, ptr %2, align 8
  %3 = load ptr, ptr %2, align 8
  %4 = getelementptr inbounds %class.MutableSpace, ptr %3, i32 0, i32 3
  %5 = load ptr, ptr %4, align 8
  ret ptr %5
}

; Function Attrs: mustprogress nounwind uwtable
define hidden noundef i64 @_ZN19ParallelCompactData19live_words_in_spaceEPK12MutableSpacePPP12HeapWordImpl(ptr noundef nonnull align 8 dereferenceable(40) %0, ptr noundef %1, ptr noundef %2) #1 align 2 {
  %4 = alloca ptr, align 8
  %5 = alloca ptr, align 8
  %6 = alloca ptr, align 8
  %7 = alloca i64, align 8
  %8 = alloca i64, align 8
  %9 = alloca i64, align 8
  %10 = alloca i8, align 1
  %11 = alloca i64, align 8
  store ptr %0, ptr %4, align 8
  store ptr %1, ptr %5, align 8
  store ptr %2, ptr %6, align 8
  %12 = load ptr, ptr %4, align 8
  %13 = load ptr, ptr %5, align 8
  %14 = call noundef ptr @_ZNK12MutableSpace6bottomEv(ptr noundef nonnull align 8 dereferenceable(56) %13)
  %15 = call noundef i64 @_ZNK19ParallelCompactData18addr_to_region_idxEPKP12HeapWordImpl(ptr noundef nonnull align 8 dereferenceable(40) %12, ptr noundef %14)
  store i64 %15, ptr %7, align 8
  %16 = load ptr, ptr %5, align 8
  %17 = call noundef ptr @_ZNK12MutableSpace3topEv(ptr noundef nonnull align 8 dereferenceable(56) %16)
  %18 = call noundef ptr @_ZNK19ParallelCompactData15region_align_upEPP12HeapWordImpl(ptr noundef nonnull align 8 dereferenceable(40) %12, ptr noundef %17)
  %19 = call noundef i64 @_ZNK19ParallelCompactData18addr_to_region_idxEPKP12HeapWordImpl(ptr noundef nonnull align 8 dereferenceable(40) %12, ptr noundef %18)
  store i64 %19, ptr %8, align 8
  store i64 0, ptr %9, align 8
  %20 = load ptr, ptr %6, align 8
  %21 = icmp eq ptr %20, null
  br i1 %21, label %22, label %39

22:                                               ; preds = %3
  br label %23

23:                                               ; preds = %35, %22
  %24 = load i64, ptr %7, align 8
  %25 = load i64, ptr %8, align 8
  %26 = icmp ult i64 %24, %25
  br i1 %26, label %27, label %38

27:                                               ; preds = %23
  %28 = getelementptr inbounds %class.ParallelCompactData, ptr %12, i32 0, i32 3
  %29 = load ptr, ptr %28, align 8
  %30 = load i64, ptr %7, align 8
  %31 = getelementptr inbounds %"class.ParallelCompactData::RegionData", ptr %29, i64 %30
  %32 = call noundef i64 @_ZNK19ParallelCompactData10RegionData9data_sizeEv(ptr noundef nonnull align 8 dereferenceable(36) %31)
  %33 = load i64, ptr %9, align 8
  %34 = add i64 %33, %32
  store i64 %34, ptr %9, align 8
  br label %35

35:                                               ; preds = %27
  %36 = load i64, ptr %7, align 8
  %37 = add i64 %36, 1
  store i64 %37, ptr %7, align 8
  br label %23, !llvm.loop !10

38:                                               ; preds = %23
  br label %74

39:                                               ; preds = %3
  store i8 0, ptr %10, align 1
  br label %40

40:                                               ; preds = %63, %39
  %41 = load i64, ptr %7, align 8
  %42 = load i64, ptr %8, align 8
  %43 = icmp ult i64 %41, %42
  br i1 %43, label %44, label %66

44:                                               ; preds = %40
  %45 = getelementptr inbounds %class.ParallelCompactData, ptr %12, i32 0, i32 3
  %46 = load ptr, ptr %45, align 8
  %47 = load i64, ptr %7, align 8
  %48 = getelementptr inbounds %"class.ParallelCompactData::RegionData", ptr %46, i64 %47
  %49 = call noundef i64 @_ZNK19ParallelCompactData10RegionData9data_sizeEv(ptr noundef nonnull align 8 dereferenceable(36) %48)
  store i64 %49, ptr %11, align 8
  %50 = load i8, ptr %10, align 1
  %51 = trunc i8 %50 to i1
  br i1 %51, label %59, label %52

52:                                               ; preds = %44
  %53 = load i64, ptr %11, align 8
  %54 = icmp ult i64 %53, 65536
  br i1 %54, label %55, label %59

55:                                               ; preds = %52
  %56 = load i64, ptr %7, align 8
  %57 = call noundef ptr @_ZNK19ParallelCompactData14region_to_addrEm(ptr noundef nonnull align 8 dereferenceable(40) %12, i64 noundef %56)
  %58 = load ptr, ptr %6, align 8
  store ptr %57, ptr %58, align 8
  store i8 1, ptr %10, align 1
  br label %59

59:                                               ; preds = %55, %52, %44
  %60 = load i64, ptr %11, align 8
  %61 = load i64, ptr %9, align 8
  %62 = add i64 %61, %60
  store i64 %62, ptr %9, align 8
  br label %63

63:                                               ; preds = %59
  %64 = load i64, ptr %7, align 8
  %65 = add i64 %64, 1
  store i64 %65, ptr %7, align 8
  br label %40, !llvm.loop !11

66:                                               ; preds = %40
  %67 = load i8, ptr %10, align 1
  %68 = trunc i8 %67 to i1
  br i1 %68, label %73, label %69

69:                                               ; preds = %66
  %70 = load ptr, ptr %5, align 8
  %71 = call noundef ptr @_ZNK12MutableSpace3topEv(ptr noundef nonnull align 8 dereferenceable(56) %70)
  %72 = load ptr, ptr %6, align 8
  store ptr %71, ptr %72, align 8
  br label %73

73:                                               ; preds = %69, %66
  br label %74

74:                                               ; preds = %73, %38
  %75 = load i64, ptr %9, align 8
  ret i64 %75
}