; Function Attrs: mustprogress nofree norecurse nounwind uwtable
define hidden noundef i64 @_ZN19ParallelCompactData19live_words_in_spaceEPK12MutableSpacePPP12HeapWordImpl(ptr nocapture noundef nonnull readonly align 8 dereferenceable(40) %0, ptr noundef %1, ptr noundef writeonly %2) local_unnamed_addr #8 align 2 {
  %4 = getelementptr inbounds i8, ptr %1, i64 32
  %5 = load ptr, ptr %4, align 8
  %6 = load ptr, ptr %0, align 8
  %7 = ptrtoint ptr %5 to i64
  %8 = ptrtoint ptr %6 to i64
  %9 = sub i64 %7, %8
  %10 = lshr i64 %9, 19
  %11 = getelementptr inbounds i8, ptr %1, i64 40
  %12 = load volatile ptr, ptr %11, align 8
  %13 = getelementptr i8, ptr %12, i64 524280
  %14 = ptrtoint ptr %13 to i64
  %15 = and i64 %14, -524288
  %16 = sub i64 %15, %8
  %17 = lshr i64 %16, 19
  %18 = icmp eq ptr %2, null
  %19 = icmp ult i64 %10, %17
  br i1 %18, label %.preheader, label %.preheader29

.preheader29:                                     ; preds = %3
  br i1 %19, label %.lr.ph, label %._crit_edge.thread

.lr.ph:                                           ; preds = %.preheader29
  %20 = getelementptr inbounds i8, ptr %0, i64 24
  br label %35

.preheader:                                       ; preds = %3
  br i1 %19, label %.lr.ph36, label %.loopexit

.lr.ph36:                                         ; preds = %.preheader
  %21 = getelementptr inbounds i8, ptr %0, i64 24
  %22 = load ptr, ptr %21, align 8
  br label %23

23:                                               ; preds = %.lr.ph36, %23
  %.035 = phi i64 [ %10, %.lr.ph36 ], [ %34, %23 ]
  %.02534 = phi i64 [ 0, %.lr.ph36 ], [ %33, %23 ]
  %24 = getelementptr inbounds %"class.ParallelCompactData::RegionData", ptr %22, i64 %.035
  %25 = getelementptr inbounds i8, ptr %24, i64 24
  %26 = load i32, ptr %25, align 8
  %27 = zext i32 %26 to i64
  %28 = getelementptr inbounds i8, ptr %24, i64 28
  %29 = load volatile i32, ptr %28, align 4
  %30 = and i32 %29, 134217727
  %31 = zext nneg i32 %30 to i64
  %32 = add i64 %.02534, %27
  %33 = add i64 %32, %31
  %34 = add nuw nsw i64 %.035, 1
  %exitcond39.not = icmp eq i64 %34, %17
  br i1 %exitcond39.not, label %.loopexit, label %23, !llvm.loop !12

35:                                               ; preds = %.lr.ph, %51
  %.132 = phi i64 [ %10, %.lr.ph ], [ %53, %51 ]
  %.02331 = phi i8 [ 0, %.lr.ph ], [ %.124, %51 ]
  %.12630 = phi i64 [ 0, %.lr.ph ], [ %52, %51 ]
  %36 = load ptr, ptr %20, align 8
  %37 = getelementptr inbounds %"class.ParallelCompactData::RegionData", ptr %36, i64 %.132
  %38 = getelementptr inbounds i8, ptr %37, i64 24
  %39 = load i32, ptr %38, align 8
  %40 = zext i32 %39 to i64
  %41 = getelementptr inbounds i8, ptr %37, i64 28
  %42 = load volatile i32, ptr %41, align 4
  %43 = and i32 %42, 134217727
  %44 = zext nneg i32 %43 to i64
  %45 = add nuw nsw i64 %44, %40
  %46 = trunc nuw i8 %.02331 to i1
  %47 = icmp ugt i64 %45, 65535
  %or.cond.not = or i1 %47, %46
  br i1 %or.cond.not, label %51, label %48

48:                                               ; preds = %35
  %49 = load ptr, ptr %0, align 8
  %.idx.i = shl i64 %.132, 19
  %50 = getelementptr inbounds i8, ptr %49, i64 %.idx.i
  store ptr %50, ptr %2, align 8
  br label %51

51:                                               ; preds = %48, %35
  %.124 = phi i8 [ 1, %48 ], [ %.02331, %35 ]
  %52 = add i64 %45, %.12630
  %53 = add nuw nsw i64 %.132, 1
  %exitcond.not = icmp eq i64 %53, %17
  br i1 %exitcond.not, label %._crit_edge, label %35, !llvm.loop !13

._crit_edge:                                      ; preds = %51
  %54 = trunc nuw i8 %.124 to i1
  br i1 %54, label %.loopexit, label %._crit_edge.thread

._crit_edge.thread:                               ; preds = %.preheader29, %._crit_edge
  %.126.lcssa42 = phi i64 [ %52, %._crit_edge ], [ 0, %.preheader29 ]
  %55 = load volatile ptr, ptr %11, align 8
  store ptr %55, ptr %2, align 8
  br label %.loopexit

.loopexit:                                        ; preds = %23, %.preheader, %._crit_edge, %._crit_edge.thread
  %.2 = phi i64 [ %52, %._crit_edge ], [ %.126.lcssa42, %._crit_edge.thread ], [ 0, %.preheader ], [ %33, %23 ]
  ret i64 %.2
}